target datalayout = "e-m:e-p270:32:32-p271:32:32-p272:64:64-i64:64-i128:128-f80:128-n8:16:32:64-S128"
target triple = "x86_64-pc-linux-gnu"

%struct.ImVec2 = type { float, float }
%struct.ImVec4 = type { float, float, float, float }
%struct.ImVector = type { i32, i32, ptr }
%struct.ImDrawCmd = type { %struct.ImVec4, ptr, i32, i32, i32, ptr, ptr }
%struct.ImDrawList = type { %struct.ImVector.0, %struct.ImVector.1, %struct.ImVector.2, i32, i32, ptr, ptr, ptr, %struct.ImVector, %struct.ImDrawCmdHeader, %struct.ImDrawListSplitter, %struct.ImVector.4, %struct.ImVector.5, float, ptr }
%struct.ImVector.0 = type { i32, i32, ptr }
%struct.ImVector.1 = type { i32, i32, ptr }
%struct.ImVector.2 = type { i32, i32, ptr }
%struct.ImDrawCmdHeader = type <{ %struct.ImVec4, ptr, i32, [4 x i8] }>
%struct.ImDrawListSplitter = type { i32, i32, %struct.ImVector.3 }
%struct.ImVector.3 = type { i32, i32, ptr }
%struct.ImVector.4 = type { i32, i32, ptr }
%struct.ImVector.5 = type { i32, i32, ptr }
%struct.ImDrawData = type { i8, i32, i32, i32, %struct.ImVector.8, %struct.ImVec2, %struct.ImVec2, %struct.ImVec2, ptr }
%struct.ImVector.8 = type { i32, i32, ptr }

; Function Attrs: mustprogress nounwind uwtable
define linkonce_odr dso_local void @_ZN6ImVec4C2Effff(ptr noundef nonnull align 4 dereferenceable(16) %0, float noundef %1, float noundef %2, float noundef %3, float noundef %4) unnamed_addr #3 comdat align 2 {
  %6 = alloca ptr, align 8
  %7 = alloca float, align 4
  %8 = alloca float, align 4
  %9 = alloca float, align 4
  %10 = alloca float, align 4
  store ptr %0, ptr %6, align 8, !tbaa !9
  store float %1, ptr %7, align 4, !tbaa !12
  store float %2, ptr %8, align 4, !tbaa !12
  store float %3, ptr %9, align 4, !tbaa !12
  store float %4, ptr %10, align 4, !tbaa !12
  %11 = load ptr, ptr %6, align 8
  %12 = getelementptr inbounds nuw %struct.ImVec4, ptr %11, i32 0, i32 0
  %13 = load float, ptr %7, align 4, !tbaa !12
  store float %13, ptr %12, align 4, !tbaa !14
  %14 = getelementptr inbounds nuw %struct.ImVec4, ptr %11, i32 0, i32 1
  %15 = load float, ptr %8, align 4, !tbaa !12
  store float %15, ptr %14, align 4, !tbaa !16
  %16 = getelementptr inbounds nuw %struct.ImVec4, ptr %11, i32 0, i32 2
  %17 = load float, ptr %9, align 4, !tbaa !12
  store float %17, ptr %16, align 4, !tbaa !17
  %18 = getelementptr inbounds nuw %struct.ImVec4, ptr %11, i32 0, i32 3
  %19 = load float, ptr %10, align 4, !tbaa !12
  store float %19, ptr %18, align 4, !tbaa !18
  ret void
}

; Function Attrs: inlinehint mustprogress nounwind uwtable
define linkonce_odr dso_local noundef ptr @_ZN8ImVectorI9ImDrawCmdE3endEv(ptr noundef nonnull align 8 dereferenceable(16) %0) #7 comdat align 2 {
  %2 = alloca ptr, align 8
  store ptr %0, ptr %2, align 8, !tbaa !89
  %3 = load ptr, ptr %2, align 8
  %4 = getelementptr inbounds nuw %struct.ImVector.0, ptr %3, i32 0, i32 2
  %5 = load ptr, ptr %4, align 8, !tbaa !110
  %6 = getelementptr inbounds nuw %struct.ImVector.0, ptr %3, i32 0, i32 0
  %7 = load i32, ptr %6, align 8, !tbaa !92
  %8 = sext i32 %7 to i64
  %9 = getelementptr inbounds %struct.ImDrawCmd, ptr %5, i64 %8
  ret ptr %9
}

; Function Attrs: inlinehint mustprogress nounwind uwtable
define linkonce_odr dso_local noundef ptr @_ZN8ImVectorI9ImDrawCmdE5beginEv(ptr noundef nonnull align 8 dereferenceable(16) %0) #7 comdat align 2 {
  %2 = alloca ptr, align 8
  store ptr %0, ptr %2, align 8, !tbaa !89
  %3 = load ptr, ptr %2, align 8
  %4 = getelementptr inbounds nuw %struct.ImVector.0, ptr %3, i32 0, i32 2
  %5 = load ptr, ptr %4, align 8, !tbaa !110
  ret ptr %5
}

; Function Attrs: inlinehint mustprogress nounwind uwtable
define linkonce_odr dso_local noundef ptr @_ZN8ImVectorIP10ImDrawListE3endEv(ptr noundef nonnull align 8 dereferenceable(16) %0) #7 comdat align 2 {
  %2 = alloca ptr, align 8
  store ptr %0, ptr %2, align 8, !tbaa !257
  %3 = load ptr, ptr %2, align 8
  %4 = getelementptr inbounds nuw %struct.ImVector.8, ptr %3, i32 0, i32 2
  %5 = load ptr, ptr %4, align 8, !tbaa !262
  %6 = getelementptr inbounds nuw %struct.ImVector.8, ptr %3, i32 0, i32 0
  %7 = load i32, ptr %6, align 8, !tbaa !260
  %8 = sext i32 %7 to i64
  %9 = getelementptr inbounds ptr, ptr %5, i64 %8
  ret ptr %9
}

; Function Attrs: inlinehint mustprogress nounwind uwtable
define linkonce_odr dso_local noundef ptr @_ZN8ImVectorIP10ImDrawListE5beginEv(ptr noundef nonnull align 8 dereferenceable(16) %0) #7 comdat align 2 {
  %2 = alloca ptr, align 8
  store ptr %0, ptr %2, align 8, !tbaa !257
  %3 = load ptr, ptr %2, align 8
  %4 = getelementptr inbounds nuw %struct.ImVector.8, ptr %3, i32 0, i32 2
  %5 = load ptr, ptr %4, align 8, !tbaa !262
  ret ptr %5
}

; Function Attrs: mustprogress uwtable
define dso_local void @_ZN10ImDrawData14ScaleClipRectsERK6ImVec2(ptr noundef nonnull align 8 dereferenceable(64) %0, ptr noundef nonnull align 4 dereferenceable(8) %1) #6 align 2 {
  %3 = alloca ptr, align 8
  %4 = alloca ptr, align 8
  %5 = alloca ptr, align 8
  %6 = alloca ptr, align 8
  %7 = alloca ptr, align 8
  %8 = alloca i32, align 4
  %9 = alloca ptr, align 8
  %10 = alloca ptr, align 8
  %11 = alloca ptr, align 8
  %12 = alloca ptr, align 8
  %13 = alloca ptr, align 8
  %14 = alloca %struct.ImVec4, align 4
  store ptr %0, ptr %3, align 8, !tbaa !246
  store ptr %1, ptr %4, align 8, !tbaa !33
  %15 = load ptr, ptr %3, align 8
  call void @llvm.lifetime.start.p0(i64 8, ptr %5) #17
  %16 = getelementptr inbounds nuw %struct.ImDrawData, ptr %15, i32 0, i32 4
  store ptr %16, ptr %5, align 8, !tbaa !257
  call void @llvm.lifetime.start.p0(i64 8, ptr %6) #17
  %17 = load ptr, ptr %5, align 8, !tbaa !257
  %18 = call noundef ptr @_ZN8ImVectorIP10ImDrawListE5beginEv(ptr noundef nonnull align 8 dereferenceable(16) %17)
  store ptr %18, ptr %6, align 8, !tbaa !261
  call void @llvm.lifetime.start.p0(i64 8, ptr %7) #17
  %19 = load ptr, ptr %5, align 8, !tbaa !257
  %20 = call noundef ptr @_ZN8ImVectorIP10ImDrawListE3endEv(ptr noundef nonnull align 8 dereferenceable(16) %19)
  store ptr %20, ptr %7, align 8, !tbaa !261
  br label %21

21:                                               ; preds = %80, %2
  %22 = load ptr, ptr %6, align 8, !tbaa !261
  %23 = load ptr, ptr %7, align 8, !tbaa !261
  %24 = icmp ne ptr %22, %23
  br i1 %24, label %26, label %25

25:                                               ; preds = %21
  store i32 2, ptr %8, align 4
  call void @llvm.lifetime.end.p0(i64 8, ptr %7) #17
  call void @llvm.lifetime.end.p0(i64 8, ptr %6) #17
  call void @llvm.lifetime.end.p0(i64 8, ptr %5) #17
  br label %83

26:                                               ; preds = %21
  call void @llvm.lifetime.start.p0(i64 8, ptr %9) #17
  %27 = load ptr, ptr %6, align 8, !tbaa !261
  %28 = load ptr, ptr %27, align 8, !tbaa !43
  store ptr %28, ptr %9, align 8, !tbaa !43
  call void @llvm.lifetime.start.p0(i64 8, ptr %10) #17
  %29 = load ptr, ptr %9, align 8, !tbaa !43
  %30 = getelementptr inbounds nuw %struct.ImDrawList, ptr %29, i32 0, i32 0
  store ptr %30, ptr %10, align 8, !tbaa !89
  call void @llvm.lifetime.start.p0(i64 8, ptr %11) #17
  %31 = load ptr, ptr %10, align 8, !tbaa !89
  %32 = call noundef ptr @_ZN8ImVectorI9ImDrawCmdE5beginEv(ptr noundef nonnull align 8 dereferenceable(16) %31)
  store ptr %32, ptr %11, align 8, !tbaa !71
  call void @llvm.lifetime.start.p0(i64 8, ptr %12) #17
  %33 = load ptr, ptr %10, align 8, !tbaa !89
  %34 = call noundef ptr @_ZN8ImVectorI9ImDrawCmdE3endEv(ptr noundef nonnull align 8 dereferenceable(16) %33)
  store ptr %34, ptr %12, align 8, !tbaa !71
  br label %35

35:                                               ; preds = %76, %26
  %36 = load ptr, ptr %11, align 8, !tbaa !71
  %37 = load ptr, ptr %12, align 8, !tbaa !71
  %38 = icmp ne ptr %36, %37
  br i1 %38, label %40, label %39

39:                                               ; preds = %35
  store i32 4, ptr %8, align 4
  call void @llvm.lifetime.end.p0(i64 8, ptr %12) #17
  call void @llvm.lifetime.end.p0(i64 8, ptr %11) #17
  call void @llvm.lifetime.end.p0(i64 8, ptr %10) #17
  br label %79

40:                                               ; preds = %35
  call void @llvm.lifetime.start.p0(i64 8, ptr %13) #17
  %41 = load ptr, ptr %11, align 8, !tbaa !71
  store ptr %41, ptr %13, align 8, !tbaa !71
  call void @llvm.lifetime.start.p0(i64 16, ptr %14) #17
  %42 = load ptr, ptr %13, align 8, !tbaa !71
  %43 = getelementptr inbounds nuw %struct.ImDrawCmd, ptr %42, i32 0, i32 0
  %44 = getelementptr inbounds nuw %struct.ImVec4, ptr %43, i32 0, i32 0
  %45 = load float, ptr %44, align 8, !tbaa !266
  %46 = load ptr, ptr %4, align 8, !tbaa !33
  %47 = getelementptr inbounds nuw %struct.ImVec2, ptr %46, i32 0, i32 0
  %48 = load float, ptr %47, align 4, !tbaa !34
  %49 = fmul float %45, %48
  %50 = load ptr, ptr %13, align 8, !tbaa !71
  %51 = getelementptr inbounds nuw %struct.ImDrawCmd, ptr %50, i32 0, i32 0
  %52 = getelementptr inbounds nuw %struct.ImVec4, ptr %51, i32 0, i32 1
  %53 = load float, ptr %52, align 4, !tbaa !267
  %54 = load ptr, ptr %4, align 8, !tbaa !33
  %55 = getelementptr inbounds nuw %struct.ImVec2, ptr %54, i32 0, i32 1
  %56 = load float, ptr %55, align 4, !tbaa !35
  %57 = fmul float %53, %56
  %58 = load ptr, ptr %13, align 8, !tbaa !71
  %59 = getelementptr inbounds nuw %struct.ImDrawCmd, ptr %58, i32 0, i32 0
  %60 = getelementptr inbounds nuw %struct.ImVec4, ptr %59, i32 0, i32 2
  %61 = load float, ptr %60, align 8, !tbaa !268
  %62 = load ptr, ptr %4, align 8, !tbaa !33
  %63 = getelementptr inbounds nuw %struct.ImVec2, ptr %62, i32 0, i32 0
  %64 = load float, ptr %63, align 4, !tbaa !34
  %65 = fmul float %61, %64
  %66 = load ptr, ptr %13, align 8, !tbaa !71
  %67 = getelementptr inbounds nuw %struct.ImDrawCmd, ptr %66, i32 0, i32 0
  %68 = getelementptr inbounds nuw %struct.ImVec4, ptr %67, i32 0, i32 3
  %69 = load float, ptr %68, align 4, !tbaa !269
  %70 = load ptr, ptr %4, align 8, !tbaa !33
  %71 = getelementptr inbounds nuw %struct.ImVec2, ptr %70, i32 0, i32 1
  %72 = load float, ptr %71, align 4, !tbaa !35
  %73 = fmul float %69, %72
  call void @_ZN6ImVec4C2Effff(ptr noundef nonnull align 4 dereferenceable(16) %14, float noundef %49, float noundef %57, float noundef %65, float noundef %73)
  %74 = load ptr, ptr %13, align 8, !tbaa !71
  %75 = getelementptr inbounds nuw %struct.ImDrawCmd, ptr %74, i32 0, i32 0
  call void @llvm.memcpy.p0.p0.i64(ptr align 8 %75, ptr align 4 %14, i64 16, i1 false), !tbaa.struct !11
  call void @llvm.lifetime.end.p0(i64 16, ptr %14) #17
  call void @llvm.lifetime.end.p0(i64 8, ptr %13) #17
  br label %76

76:                                               ; preds = %40
  %77 = load ptr, ptr %11, align 8, !tbaa !71
  %78 = getelementptr inbounds nuw %struct.ImDrawCmd, ptr %77, i32 1
  store ptr %78, ptr %11, align 8, !tbaa !71
  br label %35

79:                                               ; preds = %39
  call void @llvm.lifetime.end.p0(i64 8, ptr %9) #17
  br label %80

80:                                               ; preds = %79
  %81 = load ptr, ptr %6, align 8, !tbaa !261
  %82 = getelementptr inbounds nuw ptr, ptr %81, i32 1
  store ptr %82, ptr %6, align 8, !tbaa !261
  br label %21

83:                                               ; preds = %25
  ret void
}